; ModuleID = 'source-C-CXX/11/1338.cpp'
source_filename = "source-C-CXX/11/1338.cpp"
target datalayout = "e-m:e-p270:32:32-p271:32:32-p272:64:64-i64:64-f80:128-n8:16:32:64-S128"
target triple = "x86_64-pc-linux-gnu"

%"class.std::ios_base::Init" = type { i8 }
%"class.std::basic_istream" = type { i32 (...)**, i64, %"class.std::basic_ios" }
%"class.std::basic_ios" = type { %"class.std::ios_base", %"class.std::basic_ostream"*, i8, i8, %"class.std::basic_streambuf"*, %"class.std::ctype"*, %"class.std::num_put"*, %"class.std::num_get"* }
%"class.std::ios_base" = type { i32 (...)**, i64, i64, i32, i32, i32, %"struct.std::ios_base::_Callback_list"*, %"struct.std::ios_base::_Words", [8 x %"struct.std::ios_base::_Words"], i32, %"struct.std::ios_base::_Words"*, %"class.std::locale" }
%"struct.std::ios_base::_Callback_list" = type { %"struct.std::ios_base::_Callback_list"*, void (i32, %"class.std::ios_base"*, i32)*, i32, i32 }
%"struct.std::ios_base::_Words" = type { i8*, i64 }
%"class.std::locale" = type { %"class.std::locale::_Impl"* }
%"class.std::locale::_Impl" = type { i32, %"class.std::locale::facet"**, i64, %"class.std::locale::facet"**, i8** }
%"class.std::locale::facet" = type <{ i32 (...)**, i32, [4 x i8] }>
%"class.std::basic_ostream" = type { i32 (...)**, %"class.std::basic_ios" }
%"class.std::basic_streambuf" = type { i32 (...)**, i8*, i8*, i8*, i8*, i8*, i8*, %"class.std::locale" }
%"class.std::ctype" = type <{ %"class.std::locale::facet.base", [4 x i8], %struct.__locale_struct*, i8, [7 x i8], i32*, i32*, i16*, i8, [256 x i8], [256 x i8], i8, [6 x i8] }>
%"class.std::locale::facet.base" = type <{ i32 (...)**, i32 }>
%struct.__locale_struct = type { [13 x %struct.__locale_data*], i16*, i32*, i32*, [13 x i8*] }
%struct.__locale_data = type opaque
%"class.std::num_put" = type { %"class.std::locale::facet.base", [4 x i8] }
%"class.std::num_get" = type { %"class.std::locale::facet.base", [4 x i8] }

@_ZStL8__ioinit = internal global %"class.std::ios_base::Init" zeroinitializer, align 1
@__dso_handle = external hidden global i8
@_ZSt3cin = external global %"class.std::basic_istream", align 8
@_ZSt4cout = external global %"class.std::basic_ostream", align 8
@llvm.global_ctors = appending global [1 x { i32, void ()*, i8* }] [{ i32, void ()*, i8* } { i32 65535, void ()* @_GLOBAL__sub_I_1338.cpp, i8* null }]

declare void @_ZNSt8ios_base4InitC1Ev(%"class.std::ios_base::Init"* nonnull align 1 dereferenceable(1)) unnamed_addr #0

; Function Attrs: nounwind
declare void @_ZNSt8ios_base4InitD1Ev(%"class.std::ios_base::Init"* nonnull align 1 dereferenceable(1)) unnamed_addr #1

; Function Attrs: nofree nounwind
declare i32 @__cxa_atexit(void (i8*)*, i8*, i8*) local_unnamed_addr #2

; Function Attrs: mustprogress norecurse sspstrong uwtable
define dso_local i32 @main() local_unnamed_addr #3 {
  %1 = alloca [16 x i32], align 16
  %2 = bitcast [16 x i32]* %1 to i8*
  %3 = alloca [16 x i32], align 16
  %4 = bitcast [16 x i32]* %3 to i8*
  call void @llvm.lifetime.start.p0i8(i64 64, i8* nonnull %2) #8
  call void @llvm.lifetime.start.p0i8(i64 64, i8* nonnull %4) #8
  br label %5

5:                                                ; preds = %0, %101
  %6 = phi i32 [ 0, %0 ], [ %103, %101 ]
  %7 = sext i32 %6 to i64
  %8 = getelementptr inbounds [16 x i32], [16 x i32]* %1, i64 0, i64 %7
  %9 = call nonnull align 8 dereferenceable(16) %"class.std::basic_istream"* @_ZNSirsERi(%"class.std::basic_istream"* nonnull align 8 dereferenceable(16) @_ZSt3cin, i32* nonnull align 4 dereferenceable(4) %8)
  %10 = load i32, i32* %8, align 4, !tbaa !5
  switch i32 %10, label %56 [
    i32 -1, label %105
    i32 0, label %11
  ]

11:                                               ; preds = %5
  %12 = icmp sgt i32 %6, 0
  br i1 %12, label %13, label %64

13:                                               ; preds = %11
  %14 = zext i32 %6 to i64
  %15 = and i64 %14, 1
  %16 = icmp eq i32 %6, 1
  %17 = and i64 %14, 4294967294
  %18 = icmp eq i64 %15, 0
  br label %19

19:                                               ; preds = %13, %52
  %20 = phi i64 [ 0, %13 ], [ %54, %52 ]
  %21 = phi i32 [ 0, %13 ], [ %53, %52 ]
  %22 = getelementptr inbounds [16 x i32], [16 x i32]* %3, i64 0, i64 %20
  br i1 %16, label %39, label %23

23:                                               ; preds = %19, %113
  %24 = phi i64 [ %115, %113 ], [ 0, %19 ]
  %25 = phi i32 [ %114, %113 ], [ %21, %19 ]
  %26 = phi i64 [ %116, %113 ], [ %17, %19 ]
  %27 = icmp eq i64 %24, %20
  br i1 %27, label %35, label %28

28:                                               ; preds = %23
  %29 = getelementptr inbounds [16 x i32], [16 x i32]* %1, i64 0, i64 %24
  %30 = load i32, i32* %29, align 8, !tbaa !5
  %31 = load i32, i32* %22, align 4, !tbaa !5
  %32 = icmp eq i32 %30, %31
  %33 = zext i1 %32 to i32
  %34 = add nsw i32 %25, %33
  br label %35

35:                                               ; preds = %28, %23
  %36 = phi i32 [ %25, %23 ], [ %34, %28 ]
  %37 = or i64 %24, 1
  %38 = icmp eq i64 %37, %20
  br i1 %38, label %113, label %106

39:                                               ; preds = %113, %19
  %40 = phi i32 [ undef, %19 ], [ %114, %113 ]
  %41 = phi i64 [ 0, %19 ], [ %115, %113 ]
  %42 = phi i32 [ %21, %19 ], [ %114, %113 ]
  br i1 %18, label %52, label %43

43:                                               ; preds = %39
  %44 = icmp eq i64 %41, %20
  br i1 %44, label %52, label %45

45:                                               ; preds = %43
  %46 = getelementptr inbounds [16 x i32], [16 x i32]* %1, i64 0, i64 %41
  %47 = load i32, i32* %46, align 4, !tbaa !5
  %48 = load i32, i32* %22, align 4, !tbaa !5
  %49 = icmp eq i32 %47, %48
  %50 = zext i1 %49 to i32
  %51 = add nsw i32 %42, %50
  br label %52

52:                                               ; preds = %45, %43, %39
  %53 = phi i32 [ %40, %39 ], [ %42, %43 ], [ %51, %45 ]
  %54 = add nuw nsw i64 %20, 1
  %55 = icmp eq i64 %54, %14
  br i1 %55, label %64, label %19, !llvm.loop !9

56:                                               ; preds = %5
  %57 = and i32 %10, 1
  %58 = icmp eq i32 %57, 0
  br i1 %58, label %59, label %62

59:                                               ; preds = %56
  %60 = sdiv i32 %10, 2
  %61 = getelementptr inbounds [16 x i32], [16 x i32]* %3, i64 0, i64 %7
  store i32 %60, i32* %61, align 4, !tbaa !5
  br label %101

62:                                               ; preds = %56
  %63 = getelementptr inbounds [16 x i32], [16 x i32]* %3, i64 0, i64 %7
  store i32 -1, i32* %63, align 4, !tbaa !5
  br label %101

64:                                               ; preds = %52, %11
  %65 = phi i32 [ 0, %11 ], [ %53, %52 ]
  %66 = call nonnull align 8 dereferenceable(8) %"class.std::basic_ostream"* @_ZNSolsEi(%"class.std::basic_ostream"* nonnull align 8 dereferenceable(8) @_ZSt4cout, i32 %65)
  %67 = bitcast %"class.std::basic_ostream"* %66 to i8**
  %68 = load i8*, i8** %67, align 8, !tbaa !11
  %69 = getelementptr i8, i8* %68, i64 -24
  %70 = bitcast i8* %69 to i64*
  %71 = load i64, i64* %70, align 8
  %72 = bitcast %"class.std::basic_ostream"* %66 to i8*
  %73 = add nsw i64 %71, 240
  %74 = getelementptr inbounds i8, i8* %72, i64 %73
  %75 = bitcast i8* %74 to %"class.std::ctype"**
  %76 = load %"class.std::ctype"*, %"class.std::ctype"** %75, align 8, !tbaa !13
  %77 = icmp eq %"class.std::ctype"* %76, null
  br i1 %77, label %78, label %79

78:                                               ; preds = %64
  call void @_ZSt16__throw_bad_castv() #9
  unreachable

79:                                               ; preds = %64
  %80 = getelementptr inbounds %"class.std::ctype", %"class.std::ctype"* %76, i64 0, i32 8
  %81 = load i8, i8* %80, align 8, !tbaa !17
  %82 = icmp eq i8 %81, 0
  br i1 %82, label %86, label %83

83:                                               ; preds = %79
  %84 = getelementptr inbounds %"class.std::ctype", %"class.std::ctype"* %76, i64 0, i32 9, i64 10
  %85 = load i8, i8* %84, align 1, !tbaa !19
  br label %92

86:                                               ; preds = %79
  call void @_ZNKSt5ctypeIcE13_M_widen_initEv(%"class.std::ctype"* nonnull align 8 dereferenceable(570) %76)
  %87 = bitcast %"class.std::ctype"* %76 to i8 (%"class.std::ctype"*, i8)***
  %88 = load i8 (%"class.std::ctype"*, i8)**, i8 (%"class.std::ctype"*, i8)*** %87, align 8, !tbaa !11
  %89 = getelementptr inbounds i8 (%"class.std::ctype"*, i8)*, i8 (%"class.std::ctype"*, i8)** %88, i64 6
  %90 = load i8 (%"class.std::ctype"*, i8)*, i8 (%"class.std::ctype"*, i8)** %89, align 8
  %91 = call signext i8 %90(%"class.std::ctype"* nonnull align 8 dereferenceable(570) %76, i8 signext 10)
  br label %92

92:                                               ; preds = %83, %86
  %93 = phi i8 [ %85, %83 ], [ %91, %86 ]
  %94 = call nonnull align 8 dereferenceable(8) %"class.std::basic_ostream"* @_ZNSo3putEc(%"class.std::basic_ostream"* nonnull align 8 dereferenceable(8) %66, i8 signext %93)
  %95 = call nonnull align 8 dereferenceable(8) %"class.std::basic_ostream"* @_ZNSo5flushEv(%"class.std::basic_ostream"* nonnull align 8 dereferenceable(8) %94)
  %96 = icmp slt i32 %6, 0
  br i1 %96, label %101, label %97

97:                                               ; preds = %92
  %98 = zext i32 %6 to i64
  %99 = shl nuw nsw i64 %98, 2
  %100 = add nuw nsw i64 %99, 4
  call void @llvm.memset.p0i8.i64(i8* noundef nonnull align 16 %2, i8 0, i64 %100, i1 false)
  call void @llvm.memset.p0i8.i64(i8* noundef nonnull align 16 %4, i8 0, i64 %100, i1 false)
  br label %101

101:                                              ; preds = %97, %92, %62, %59
  %102 = phi i32 [ %6, %59 ], [ %6, %62 ], [ -1, %92 ], [ -1, %97 ]
  %103 = add nsw i32 %102, 1
  %104 = icmp slt i32 %102, 15
  br i1 %104, label %5, label %105, !llvm.loop !20

105:                                              ; preds = %5, %101
  call void @llvm.lifetime.end.p0i8(i64 64, i8* nonnull %4) #8
  call void @llvm.lifetime.end.p0i8(i64 64, i8* nonnull %2) #8
  ret i32 0

106:                                              ; preds = %35
  %107 = getelementptr inbounds [16 x i32], [16 x i32]* %1, i64 0, i64 %37
  %108 = load i32, i32* %107, align 4, !tbaa !5
  %109 = load i32, i32* %22, align 4, !tbaa !5
  %110 = icmp eq i32 %108, %109
  %111 = zext i1 %110 to i32
  %112 = add nsw i32 %36, %111
  br label %113

113:                                              ; preds = %106, %35
  %114 = phi i32 [ %36, %35 ], [ %112, %106 ]
  %115 = add nuw nsw i64 %24, 2
  %116 = add i64 %26, -2
  %117 = icmp eq i64 %116, 0
  br i1 %117, label %39, label %23, !llvm.loop !21
}

; Function Attrs: argmemonly mustprogress nofree nosync nounwind willreturn
declare void @llvm.lifetime.start.p0i8(i64 immarg, i8* nocapture) #4

declare nonnull align 8 dereferenceable(16) %"class.std::basic_istream"* @_ZNSirsERi(%"class.std::basic_istream"* nonnull align 8 dereferenceable(16), i32* nonnull align 4 dereferenceable(4)) local_unnamed_addr #0

declare nonnull align 8 dereferenceable(8) %"class.std::basic_ostream"* @_ZNSolsEi(%"class.std::basic_ostream"* nonnull align 8 dereferenceable(8), i32) local_unnamed_addr #0

; Function Attrs: argmemonly mustprogress nofree nosync nounwind willreturn
declare void @llvm.lifetime.end.p0i8(i64 immarg, i8* nocapture) #4

declare nonnull align 8 dereferenceable(8) %"class.std::basic_ostream"* @_ZNSo3putEc(%"class.std::basic_ostream"* nonnull align 8 dereferenceable(8), i8 signext) local_unnamed_addr #0

declare nonnull align 8 dereferenceable(8) %"class.std::basic_ostream"* @_ZNSo5flushEv(%"class.std::basic_ostream"* nonnull align 8 dereferenceable(8)) local_unnamed_addr #0

; Function Attrs: noreturn
declare void @_ZSt16__throw_bad_castv() local_unnamed_addr #5

declare void @_ZNKSt5ctypeIcE13_M_widen_initEv(%"class.std::ctype"* nonnull align 8 dereferenceable(570)) local_unnamed_addr #0

; Function Attrs: sspstrong uwtable
define internal void @_GLOBAL__sub_I_1338.cpp() #6 section ".text.startup" {
  tail call void @_ZNSt8ios_base4InitC1Ev(%"class.std::ios_base::Init"* nonnull align 1 dereferenceable(1) @_ZStL8__ioinit)
  %1 = tail call i32 @__cxa_atexit(void (i8*)* bitcast (void (%"class.std::ios_base::Init"*)* @_ZNSt8ios_base4InitD1Ev to void (i8*)*), i8* getelementptr inbounds (%"class.std::ios_base::Init", %"class.std::ios_base::Init"* @_ZStL8__ioinit, i64 0, i32 0), i8* nonnull @__dso_handle) #8
  ret void
}

; Function Attrs: argmemonly nofree nounwind willreturn writeonly
declare void @llvm.memset.p0i8.i64(i8* nocapture writeonly, i8, i64, i1 immarg) #7


!llvm.module.flags = !{!0, !1, !2, !3}
!llvm.ident = !{!4}

!0 = !{i32 1, !"wchar_size", i32 4}
!1 = !{i32 7, !"PIC Level", i32 2}
!2 = !{i32 7, !"PIE Level", i32 2}
!3 = !{i32 7, !"uwtable", i32 1}
!4 = !{!"clang version 13.0.0"}
!5 = !{!6, !6, i64 0}
!6 = !{!"int", !7, i64 0}
!7 = !{!"omnipotent char", !8, i64 0}
!8 = !{!"Simple C++ TBAA"}
!9 = distinct !{!9, !10}
!10 = !{!"llvm.loop.mustprogress"}
!11 = !{!12, !12, i64 0}
!12 = !{!"vtable pointer", !8, i64 0}
!13 = !{!14, !15, i64 240}
!14 = !{!"_ZTSSt9basic_iosIcSt11char_traitsIcEE", !15, i64 216, !7, i64 224, !16, i64 225, !15, i64 232, !15, i64 240, !15, i64 248, !15, i64 256}
!15 = !{!"any pointer", !7, i64 0}
!16 = !{!"bool", !7, i64 0}
!17 = !{!18, !7, i64 56}
!18 = !{!"_ZTSSt5ctypeIcE", !15, i64 16, !16, i64 24, !15, i64 32, !15, i64 40, !15, i64 48, !7, i64 56, !7, i64 57, !7, i64 313, !7, i64 569}
!19 = !{!7, !7, i64 0}
!20 = distinct !{!20, !10}
!21 = distinct !{!21, !10}
